target datalayout = "e-m:e-p270:32:32-p271:32:32-p272:64:64-i64:64-i128:128-f80:128-n8:16:32:64-S128"
target triple = "x86_64-pc-linux-gnu"

%struct.cmsVEC3 = type { [3 x double] }

; Function Attrs: nounwind uwtable
define hidden double @_cmsVEC3dot(ptr noundef %0, ptr noundef %1) #0 {
  %3 = alloca ptr, align 8
  %4 = alloca ptr, align 8
  store ptr %0, ptr %3, align 8
  store ptr %1, ptr %4, align 8
  %5 = load ptr, ptr %3, align 8
  %6 = getelementptr inbounds %struct.cmsVEC3, ptr %5, i32 0, i32 0
  %7 = getelementptr inbounds [3 x double], ptr %6, i64 0, i64 0
  %8 = load double, ptr %7, align 8
  %9 = load ptr, ptr %4, align 8
  %10 = getelementptr inbounds %struct.cmsVEC3, ptr %9, i32 0, i32 0
  %11 = getelementptr inbounds [3 x double], ptr %10, i64 0, i64 0
  %12 = load double, ptr %11, align 8
  %13 = load ptr, ptr %3, align 8
  %14 = getelementptr inbounds %struct.cmsVEC3, ptr %13, i32 0, i32 0
  %15 = getelementptr inbounds [3 x double], ptr %14, i64 0, i64 1
  %16 = load double, ptr %15, align 8
  %17 = load ptr, ptr %4, align 8
  %18 = getelementptr inbounds %struct.cmsVEC3, ptr %17, i32 0, i32 0
  %19 = getelementptr inbounds [3 x double], ptr %18, i64 0, i64 1
  %20 = load double, ptr %19, align 8
  %21 = fmul double %16, %20
  %22 = call double @llvm.fmuladd.f64(double %8, double %12, double %21)
  %23 = load ptr, ptr %3, align 8
  %24 = getelementptr inbounds %struct.cmsVEC3, ptr %23, i32 0, i32 0
  %25 = getelementptr inbounds [3 x double], ptr %24, i64 0, i64 2
  %26 = load double, ptr %25, align 8
  %27 = load ptr, ptr %4, align 8
  %28 = getelementptr inbounds %struct.cmsVEC3, ptr %27, i32 0, i32 0
  %29 = getelementptr inbounds [3 x double], ptr %28, i64 0, i64 2
  %30 = load double, ptr %29, align 8
  %31 = call double @llvm.fmuladd.f64(double %26, double %30, double %22)
  ret double %31
}