; Function Attrs: mustprogress nofree norecurse nosync nounwind willreturn memory(argmem: read) uwtable
define hidden double @_cmsVEC3dot(ptr nocapture noundef readonly %0, ptr nocapture noundef readonly %1) local_unnamed_addr #3 {
  %3 = load double, ptr %0, align 8
  %4 = load double, ptr %1, align 8
  %5 = getelementptr inbounds i8, ptr %0, i64 8
  %6 = load double, ptr %5, align 8
  %7 = getelementptr inbounds i8, ptr %1, i64 8
  %8 = load double, ptr %7, align 8
  %9 = fmul double %6, %8
  %10 = tail call double @llvm.fmuladd.f64(double %3, double %4, double %9)
  %11 = getelementptr inbounds i8, ptr %0, i64 16
  %12 = load double, ptr %11, align 8
  %13 = getelementptr inbounds i8, ptr %1, i64 16
  %14 = load double, ptr %13, align 8
  %15 = tail call double @llvm.fmuladd.f64(double %12, double %14, double %10)
  ret double %15
}